target datalayout = "e-m:e-p270:32:32-p271:32:32-p272:64:64-i64:64-i128:128-f80:128-n8:16:32:64-S128"
target triple = "x86_64-pc-linux-gnu"

%"struct.std::atomic" = type { %"struct.std::__atomic_base" }
%"struct.std::__atomic_base" = type { i64 }
%"class.grpc_core::HistogramCollector_10000_20" = type { [20 x %"struct.std::atomic"] }
%"class.grpc_core::Histogram_10000_20" = type { [20 x i64] }

; Function Attrs: noinline noreturn nounwind uwtable
define linkonce_odr hidden void @__clang_call_terminate(ptr noundef %0) #8 comdat {
  %2 = call ptr @__cxa_begin_catch(ptr %0) #11
  call void @_ZSt9terminatev() #12
  unreachable
}

; Function Attrs: mustprogress nounwind uwtable
define linkonce_odr noundef i32 @_ZStanSt12memory_orderSt23__memory_order_modifier(i32 noundef %0, i32 noundef %1) #0 comdat {
  %3 = alloca i32, align 4
  %4 = alloca i32, align 4
  store i32 %0, ptr %3, align 4, !tbaa !18
  store i32 %1, ptr %4, align 4, !tbaa !93
  %5 = load i32, ptr %3, align 4, !tbaa !18
  %6 = load i32, ptr %4, align 4, !tbaa !93
  %7 = and i32 %5, %6
  ret i32 %7
}

; Function Attrs: alwaysinline mustprogress nounwind uwtable
define linkonce_odr noundef i64 @_ZNKSt13__atomic_baseImE4loadESt12memory_order(ptr noundef nonnull align 8 dereferenceable(8) %0, i32 noundef %1) #2 comdat align 2 personality ptr @__gxx_personality_v0 {
  %3 = alloca ptr, align 8
  %4 = alloca i32, align 4
  %5 = alloca i32, align 4
  %6 = alloca i64, align 8
  store ptr %0, ptr %3, align 8, !tbaa !16
  store i32 %1, ptr %4, align 4, !tbaa !18
  %7 = load ptr, ptr %3, align 8
  call void @llvm.lifetime.start.p0(i64 4, ptr %5) #11
  %8 = load i32, ptr %4, align 4, !tbaa !18
  %9 = invoke noundef i32 @_ZStanSt12memory_orderSt23__memory_order_modifier(i32 noundef %8, i32 noundef 65535)
          to label %10 unwind label %27

10:                                               ; preds = %2
  store i32 %9, ptr %5, align 4, !tbaa !18
  br label %11

11:                                               ; preds = %10
  br label %12

12:                                               ; preds = %11
  br label %13

13:                                               ; preds = %12
  br label %14

14:                                               ; preds = %13
  br label %15

15:                                               ; preds = %14
  br label %16

16:                                               ; preds = %15
  %17 = getelementptr inbounds nuw %"struct.std::__atomic_base", ptr %7, i32 0, i32 0
  %18 = load i32, ptr %4, align 4, !tbaa !18
  switch i32 %18, label %19 [
    i32 1, label %21
    i32 2, label %21
    i32 5, label %23
  ]

19:                                               ; preds = %16
  %20 = load atomic i64, ptr %17 monotonic, align 8
  store i64 %20, ptr %6, align 8
  br label %25

21:                                               ; preds = %16, %16
  %22 = load atomic i64, ptr %17 acquire, align 8
  store i64 %22, ptr %6, align 8
  br label %25

23:                                               ; preds = %16
  %24 = load atomic i64, ptr %17 seq_cst, align 8
  store i64 %24, ptr %6, align 8
  br label %25

25:                                               ; preds = %23, %21, %19
  %26 = load i64, ptr %6, align 8, !tbaa !12
  call void @llvm.lifetime.end.p0(i64 4, ptr %5) #11
  ret i64 %26

27:                                               ; preds = %2
  %28 = landingpad { ptr, i32 }
          catch ptr null
  %29 = extractvalue { ptr, i32 } %28, 0
  call void @__clang_call_terminate(ptr %29) #12
  unreachable
}

; Function Attrs: mustprogress nounwind uwtable
define void @_ZNK9grpc_core27HistogramCollector_10000_207CollectEPNS_18Histogram_10000_20E(ptr noundef nonnull align 8 dereferenceable(160) %0, ptr noundef %1) #0 align 2 {
  %3 = alloca ptr, align 8
  %4 = alloca ptr, align 8
  %5 = alloca i32, align 4
  store ptr %0, ptr %3, align 8, !tbaa !45
  store ptr %1, ptr %4, align 8, !tbaa !47
  %6 = load ptr, ptr %3, align 8
  call void @llvm.lifetime.start.p0(i64 4, ptr %5) #11
  store i32 0, ptr %5, align 4, !tbaa !10
  br label %7

7:                                                ; preds = %24, %2
  %8 = load i32, ptr %5, align 4, !tbaa !10
  %9 = icmp slt i32 %8, 20
  br i1 %9, label %11, label %10

10:                                               ; preds = %7
  call void @llvm.lifetime.end.p0(i64 4, ptr %5) #11
  br label %27

11:                                               ; preds = %7
  %12 = getelementptr inbounds nuw %"class.grpc_core::HistogramCollector_10000_20", ptr %6, i32 0, i32 0
  %13 = load i32, ptr %5, align 4, !tbaa !10
  %14 = sext i32 %13 to i64
  %15 = getelementptr inbounds [20 x %"struct.std::atomic"], ptr %12, i64 0, i64 %14
  %16 = call noundef i64 @_ZNKSt13__atomic_baseImE4loadESt12memory_order(ptr noundef nonnull align 8 dereferenceable(8) %15, i32 noundef 0) #11
  %17 = load ptr, ptr %4, align 8, !tbaa !47
  %18 = getelementptr inbounds nuw %"class.grpc_core::Histogram_10000_20", ptr %17, i32 0, i32 0
  %19 = load i32, ptr %5, align 4, !tbaa !10
  %20 = sext i32 %19 to i64
  %21 = getelementptr inbounds [20 x i64], ptr %18, i64 0, i64 %20
  %22 = load i64, ptr %21, align 8, !tbaa !12
  %23 = add i64 %22, %16
  store i64 %23, ptr %21, align 8, !tbaa !12
  br label %24

24:                                               ; preds = %11
  %25 = load i32, ptr %5, align 4, !tbaa !10
  %26 = add nsw i32 %25, 1
  store i32 %26, ptr %5, align 4, !tbaa !10
  br label %7, !llvm.loop !49

27:                                               ; preds = %10
  ret void
}